Certificate:
    Data:
        Version: 3 (0x2)
        Serial Number: 4096 (0x1000)
        Signature Algorithm: sha256WithRSAEncryption
        Issuer: C=ES, ST=Barcelona, L=Barcelona, O=NSAA
        Validity
            Not Before: May  6 17:14:39 2025 GMT
            Not After : May 16 17:14:39 2026 GMT
        Subject: C=ES, ST=Barcelona, L=Barcelona, O=NSAA, CN=radius.upc.edu
        Subject Public Key Info:
            Public Key Algorithm: rsaEncryption
                Public-Key: (2048 bit)
                Modulus:
                    00:ae:3e:e4:80:32:c2:75:46:19:1f:da:89:c4:f9:
                    57:2f:bb:64:74:dc:cc:54:06:09:7e:33:61:a2:6f:
                    19:51:e0:e3:3d:bf:12:ff:3d:44:4f:87:53:bb:4a:
                    9c:93:2f:94:84:09:47:30:2e:bc:85:cc:02:f2:90:
                    e8:45:56:c5:46:6d:c8:dd:71:bc:73:21:5c:e4:ac:
                    9b:e3:27:7b:d8:5e:8a:06:f6:ea:c5:00:bf:13:73:
                    9b:a8:32:89:ef:00:cb:40:5a:dc:3f:70:56:6c:a7:
                    b7:d7:d4:38:e7:34:07:52:de:27:0f:2d:2e:b7:41:
                    51:c1:9b:9d:3e:1c:92:c2:5f:96:39:01:37:96:f0:
                    89:56:79:58:83:4e:01:48:f4:10:6b:c4:31:96:d2:
                    10:e6:fa:a9:07:7c:98:2f:1a:da:fe:8e:ad:a8:c1:
                    03:b8:60:fa:9d:d5:cd:24:62:dc:78:d8:08:02:1d:
                    4a:5c:50:81:8e:fe:b3:19:34:01:39:3f:40:c4:8b:
                    51:fa:44:b7:e0:ca:d3:b8:07:3b:ad:89:07:46:5a:
                    a4:db:00:7f:dc:9e:02:4d:56:04:da:88:12:2d:22:
                    c9:e2:25:ff:ff:6f:96:36:66:29:bd:c8:2c:7a:cb:
                    5b:26:81:48:2b:25:b0:0e:35:4e:c9:c2:61:7e:02:
                    c7:7d
                Exponent: 65537 (0x10001)
        X509v3 extensions:
            X509v3 Extended Key Usage: 
                TLS Web Server Authentication
            X509v3 Subject Key Identifier: 
                45:98:93:84:AE:92:00:55:B4:23:EE:CF:AA:7E:FE:A6:3A:1C:68:BD
            X509v3 Authority Key Identifier: 
                18:18:60:BC:79:C3:22:5F:9F:9B:54:06:5B:8B:0D:35:44:2C:4E:5B
    Signature Algorithm: sha256WithRSAEncryption
    Signature Value:
        48:08:6b:17:56:de:91:e7:5b:07:7a:9b:ea:51:22:52:88:64:
        59:83:29:4a:7e:34:5a:5d:a1:6a:c8:52:28:0d:69:6e:e0:da:
        e6:e7:e1:81:72:32:68:cb:fb:e6:13:ea:1f:5a:c5:22:b9:33:
        ca:59:05:e2:2c:f3:55:5e:3d:30:4e:7a:44:ff:c7:36:6f:92:
        d5:fd:b2:77:3b:1f:da:ba:eb:7d:38:65:a4:ed:e1:a8:a5:a7:
        05:ca:ee:2c:0b:ca:01:13:bc:c8:33:f7:19:47:88:cd:74:35:
        fd:b3:90:ce:6e:3c:b9:5a:f8:3b:c4:f1:95:52:ab:12:fe:85:
        c3:e6:77:fe:46:4e:89:a2:a3:5c:fe:79:dc:9b:19:57:48:f6:
        f7:ba:7e:e0:4e:af:3f:ad:ca:cd:b2:cc:5d:bd:27:ac:59:54:
        24:a6:a0:b0:bd:dc:f4:0b:3b:e7:60:b3:84:87:29:86:7b:c7:
        90:92:8e:33:31:b8:76:b1:69:1a:a9:44:9e:5a:c3:72:dd:78:
        48:7b:f4:e9:89:d2:ab:fe:4d:f4:10:69:16:66:a9:1e:ba:5d:
        04:6e:b6:6f:6b:85:7c:b1:60:8c:be:69:55:ab:24:7c:8f:3d:
        14:10:32:52:b3:b2:14:69:f3:fa:fd:4b:a1:bd:cd:a9:e6:9e:
        4c:0c:1a:1d:9a:30:0b:67:5f:2c:a4:0d:cf:4f:b4:de:48:bc:
        34:e6:97:ed:82:c1:9a:ce:3d:5d:84:35:8f:9c:c5:e4:26:32:
        f5:4e:96:7e:73:3b:eb:3c:7a:1f:6f:ec:ec:13:61:ef:24:be:
        69:7b:3e:fa:c2:a1:ab:88:60:e5:58:c3:a6:d6:07:5c:4e:2f:
        0b:bd:c4:50:4a:22:7e:2e:18:dd:9f:0a:a6:1b:42:3d:15:c9:
        1e:38:c4:11:f5:f2:6f:59:77:df:f8:39:5f:db:e8:b7:af:1f:
        84:d2:e7:ed:dc:ec:a4:7e:13:20:67:09:56:b1:f1:3d:9a:ad:
        df:58:c3:d1:7e:6d:18:35:12:73:60:ce:7b:ec:eb:d0:d7:dd:
        6e:49:10:5b:a2:5a:13:b0:f7:f1:f7:cb:a6:08:00:79:e9:cf:
        b5:a0:86:ad:30:d6:01:97:b8:3c:9b:11:97:23:88:88:c1:af:
        77:77:5f:ec:34:9b:3b:f6:05:96:20:68:e8:b5:b7:a0:d7:8b:
        13:c8:1c:37:8d:0a:75:2e:e4:e9:63:0c:da:bd:37:99:38:62:
        3f:04:a2:00:b5:8e:2d:49:29:30:9a:1b:5e:04:a6:d3:7b:6f:
        8c:84:fd:cc:1d:32:8d:4f:ce:fc:32:60:fb:34:54:66:51:cf:
        9c:dd:95:91:8b:0b:d1:42
-----BEGIN CERTIFICATE-----
MIIEdDCCAlygAwIBAgICEAAwDQYJKoZIhvcNAQELBQAwRDELMAkGA1UEBhMCRVMx
EjAQBgNVBAgMCUJhcmNlbG9uYTESMBAGA1UEBwwJQmFyY2Vsb25hMQ0wCwYDVQQK
DAROU0FBMB4XDTI1MDUwNjE3MTQzOVoXDTI2MDUxNjE3MTQzOVowXTELMAkGA1UE
BhMCRVMxEjAQBgNVBAgMCUJhcmNlbG9uYTESMBAGA1UEBwwJQmFyY2Vsb25hMQ0w
CwYDVQQKDAROU0FBMRcwFQYDVQQDDA5yYWRpdXMudXBjLmVkdTCCASIwDQYJKoZI
hvcNAQEBBQADggEPADCCAQoCggEBAK4+5IAywnVGGR/aicT5Vy+7ZHTczFQGCX4z
YaJvGVHg4z2/Ev89RE+HU7tKnJMvlIQJRzAuvIXMAvKQ6EVWxUZtyN1xvHMhXOSs
m+Mne9heigb26sUAvxNzm6gyie8Ay0Ba3D9wVmynt9fUOOc0B1LeJw8tLrdBUcGb
nT4cksJfljkBN5bwiVZ5WINOAUj0EGvEMZbSEOb6qQd8mC8a2v6OrajBA7hg+p3V
zSRi3HjYCAIdSlxQgY7+sxk0ATk/QMSLUfpEt+DK07gHO62JB0ZapNsAf9yeAk1W
BNqIEi0iyeIl//9vljZmKb3ILHrLWyaBSCslsA41TsnCYX4Cx30CAwEAAaNXMFUw
EwYDVR0lBAwwCgYIKwYBBQUHAwEwHQYDVR0OBBYEFEWYk4SukgBVtCPuz6p+/qY6
HGi9MB8GA1UdIwQYMBaAFBgYYLx5wyJfn5tUBluLDTVELE5bMA0GCSqGSIb3DQEB
CwUAA4ICAQBICGsXVt6R51sHepvqUSJSiGRZgylKfjRaXaFqyFIoDWlu4Nrm5+GB
cjJoy/vmE+ofWsUiuTPKWQXiLPNVXj0wTnpE/8c2b5LV/bJ3Ox/auut9OGWk7eGo
pacFyu4sC8oBE7zIM/cZR4jNdDX9s5DObjy5Wvg7xPGVUqsS/oXD5nf+Rk6JoqNc
/nncmxlXSPb3un7gTq8/rcrNssxdvSesWVQkpqCwvdz0CzvnYLOEhymGe8eQko4z
Mbh2sWkaqUSeWsNy3XhIe/TpidKr/k30EGkWZqkeul0EbrZva4V8sWCMvmlVqyR8
jz0UEDJSs7IUafP6/Uuhvc2p5p5MDBodmjALZ18spA3PT7TeSLw05pftgsGazj1d
hDWPnMXkJjL1TpZ+czvrPHofb+zsE2HvJL5pez76wqGriGDlWMOm1gdcTi8LvcRQ
SiJ+LhjdnwqmG0I9FckeOMQR9fJvWXff+Dlf2+i3rx+E0uft3OykfhMgZwlWsfE9
mq3fWMPRfm0YNRJzYM577OvQ191uSRBboloTsPfx98umCAB56c+1oIatMNYBl7g8
mxGXI4iIwa93d1/sNJs79gWWIGjotbeg14sTyBw3jQp1LuTpYwzavTeZOGI/BKIA
tY4tSSkwmhteBKbTe2+MhP3MHTKNT878MmD7NFRmUc+c3ZWRiwvRQg==
-----END CERTIFICATE-----
